; Function Attrs: nofree norecurse nosync nounwind memory(argmem: readwrite) uwtable
define void @dt_iop_image_div_const(ptr noundef captures(none) %0, float noundef %1, i64 noundef %2, i64 noundef %3, i64 noundef %4) local_unnamed_addr #9 {
  %6 = mul i64 %3, %2
  %7 = mul i64 %6, %4
  %.not = icmp eq i64 %7, 0
  br i1 %.not, label %._crit_edge, label %.lr.ph.preheader

.lr.ph.preheader:                                 ; preds = %5
  %8 = fdiv reassoc nsz arcp contract afn float 1.000000e+00, %1
  br label %.lr.ph

._crit_edge:                                      ; preds = %.lr.ph, %5
  ret void

.lr.ph:                                           ; preds = %.lr.ph.preheader, %.lr.ph
  %.08 = phi i64 [ %12, %.lr.ph ], [ 0, %.lr.ph.preheader ]
  %9 = getelementptr inbounds nuw float, ptr %0, i64 %.08
  %10 = load float, ptr %9, align 4, !tbaa !32
  %11 = fmul reassoc nsz arcp contract afn float %10, %8
  store float %11, ptr %9, align 4, !tbaa !32
  %12 = add nuw i64 %.08, 1
  %exitcond.not = icmp eq i64 %12, %7
  br i1 %exitcond.not, label %._crit_edge, label %.lr.ph
}